; Function Attrs: mustprogress nofree norecurse nosync nounwind willreturn memory(read, argmem: readwrite, inaccessiblemem: none) uwtable
define internal fastcc void @vop_dquant_decoding(ptr noundef captures(none) %0) unnamed_addr #5 {
  %2 = getelementptr inbounds nuw i8, ptr %0, i64 4160
  %3 = getelementptr inbounds nuw i8, ptr %0, i64 6504
  %4 = load i32, ptr %3, align 8, !tbaa !102
  %.not = icmp eq i32 %4, 2
  %.phi.trans.insert = getelementptr inbounds nuw i8, ptr %0, i64 4176
  %.pre = load i32, ptr %.phi.trans.insert, align 8, !tbaa !12
  br i1 %.not, label %._crit_edge, label %5

._crit_edge:                                      ; preds = %1
  %.phi.trans.insert24 = getelementptr inbounds nuw i8, ptr %0, i64 4184
  %.pre25 = load i32, ptr %.phi.trans.insert24, align 8, !tbaa !14
  %.pre26 = load ptr, ptr %2, align 8, !tbaa !15
  br label %64

5:                                                ; preds = %1
  %6 = load ptr, ptr %2, align 8, !tbaa !15
  %7 = lshr i32 %.pre, 3
  %8 = zext nneg i32 %7 to i64
  %9 = getelementptr inbounds nuw i8, ptr %6, i64 %8
  %10 = load i8, ptr %9, align 1, !tbaa !11
  %11 = getelementptr inbounds nuw i8, ptr %0, i64 4184
  %12 = load i32, ptr %11, align 8, !tbaa !14
  %13 = icmp slt i32 %.pre, %12
  %14 = zext i1 %13 to i32
  %spec.select.i = add i32 %.pre, %14
  %15 = zext i8 %10 to i32
  %16 = and i32 %.pre, 7
  %17 = shl nuw nsw i32 %15, %16
  %18 = lshr i32 %17, 7
  store i32 %spec.select.i, ptr %.phi.trans.insert, align 8, !tbaa !12
  %19 = and i32 %18, 1
  %20 = trunc nuw nsw i32 %19 to i8
  %21 = getelementptr inbounds nuw i8, ptr %0, i64 6832
  store i8 %20, ptr %21, align 8, !tbaa !137
  %.not21 = icmp eq i32 %19, 0
  br i1 %.not21, label %100, label %22

22:                                               ; preds = %5
  %23 = lshr i32 %spec.select.i, 3
  %24 = zext nneg i32 %23 to i64
  %25 = getelementptr inbounds nuw i8, ptr %6, i64 %24
  %26 = load i32, ptr %25, align 1, !tbaa !11
  %27 = tail call i32 @llvm.bswap.i32(i32 %26)
  %28 = and i32 %spec.select.i, 7
  %29 = shl i32 %27, %28
  %30 = lshr i32 %29, 30
  %31 = add i32 %spec.select.i, 2
  %32 = tail call i32 @llvm.umin.i32(i32 %12, i32 %31)
  store i32 %32, ptr %.phi.trans.insert, align 8, !tbaa !12
  %33 = trunc nuw nsw i32 %30 to i8
  %34 = getelementptr inbounds nuw i8, ptr %0, i64 6833
  store i8 %33, ptr %34, align 1, !tbaa !191
  switch i8 %33, label %default.unreachable [
    i8 2, label %35
    i8 1, label %35
    i8 3, label %48
    i8 0, label %64
  ]

35:                                               ; preds = %22, %22
  %36 = lshr i32 %32, 3
  %37 = zext nneg i32 %36 to i64
  %38 = getelementptr inbounds nuw i8, ptr %6, i64 %37
  %39 = load i32, ptr %38, align 1, !tbaa !11
  %40 = tail call i32 @llvm.bswap.i32(i32 %39)
  %41 = and i32 %32, 7
  %42 = shl i32 %40, %41
  %43 = lshr i32 %42, 30
  %44 = add i32 %32, 2
  %45 = tail call i32 @llvm.umin.i32(i32 %12, i32 %44)
  store i32 %45, ptr %.phi.trans.insert, align 8, !tbaa !12
  %46 = trunc nuw nsw i32 %43 to i8
  %47 = getelementptr inbounds nuw i8, ptr %0, i64 6834
  store i8 %46, ptr %47, align 2, !tbaa !192
  br label %64

48:                                               ; preds = %22
  %49 = lshr i32 %32, 3
  %50 = zext nneg i32 %49 to i64
  %51 = getelementptr inbounds nuw i8, ptr %6, i64 %50
  %52 = load i8, ptr %51, align 1, !tbaa !11
  %53 = icmp slt i32 %32, %12
  %54 = zext i1 %53 to i32
  %spec.select.i23 = add i32 %32, %54
  %55 = zext i8 %52 to i32
  %56 = and i32 %32, 7
  %57 = shl nuw nsw i32 %55, %56
  %58 = lshr i32 %57, 7
  store i32 %spec.select.i23, ptr %.phi.trans.insert, align 8, !tbaa !12
  %59 = and i32 %58, 1
  %60 = trunc nuw nsw i32 %59 to i8
  %61 = getelementptr inbounds nuw i8, ptr %0, i64 6835
  store i8 %60, ptr %61, align 1, !tbaa !193
  %.not22 = icmp eq i32 %59, 0
  br i1 %.not22, label %62, label %64

62:                                               ; preds = %48
  %63 = getelementptr inbounds nuw i8, ptr %0, i64 6940
  store i8 0, ptr %63, align 4, !tbaa !135
  br label %100

default.unreachable:                              ; preds = %22
  unreachable

64:                                               ; preds = %._crit_edge, %22, %35, %48
  %65 = phi ptr [ %.pre26, %._crit_edge ], [ %6, %22 ], [ %6, %35 ], [ %6, %48 ]
  %66 = phi i32 [ %.pre25, %._crit_edge ], [ %12, %22 ], [ %12, %35 ], [ %12, %48 ]
  %67 = phi i32 [ %.pre, %._crit_edge ], [ %32, %22 ], [ %45, %35 ], [ %spec.select.i23, %48 ]
  %68 = getelementptr inbounds nuw i8, ptr %0, i64 4176
  %69 = lshr i32 %67, 3
  %70 = zext nneg i32 %69 to i64
  %71 = getelementptr inbounds nuw i8, ptr %65, i64 %70
  %72 = load i32, ptr %71, align 1, !tbaa !11
  %73 = tail call i32 @llvm.bswap.i32(i32 %72)
  %74 = and i32 %67, 7
  %75 = shl i32 %73, %74
  %76 = lshr i32 %75, 29
  %77 = add i32 %67, 3
  %78 = tail call i32 @llvm.umin.i32(i32 %66, i32 %77)
  store i32 %78, ptr %68, align 8, !tbaa !12
  %79 = icmp eq i32 %76, 7
  br i1 %79, label %80, label %93

80:                                               ; preds = %64
  %81 = lshr i32 %78, 3
  %82 = zext nneg i32 %81 to i64
  %83 = getelementptr inbounds nuw i8, ptr %65, i64 %82
  %84 = load i32, ptr %83, align 1, !tbaa !11
  %85 = tail call i32 @llvm.bswap.i32(i32 %84)
  %86 = and i32 %78, 7
  %87 = shl i32 %85, %86
  %88 = lshr i32 %87, 27
  %89 = add i32 %78, 5
  %90 = tail call i32 @llvm.umin.i32(i32 %66, i32 %89)
  store i32 %90, ptr %68, align 8, !tbaa !12
  %91 = trunc nuw nsw i32 %88 to i8
  %92 = getelementptr inbounds nuw i8, ptr %0, i64 6549
  store i8 %91, ptr %92, align 1, !tbaa !194
  br label %100

93:                                               ; preds = %64
  %94 = getelementptr inbounds nuw i8, ptr %0, i64 6548
  %95 = load i8, ptr %94, align 4, !tbaa !133
  %96 = trunc nuw nsw i32 %76 to i8
  %97 = add nuw nsw i8 %96, 1
  %98 = add i8 %97, %95
  %99 = getelementptr inbounds nuw i8, ptr %0, i64 6549
  store i8 %98, ptr %99, align 1, !tbaa !194
  br label %100

100:                                              ; preds = %80, %93, %5, %62
  ret void
}